; Function Attrs: nounwind uwtable
define void @b2Body_SetFixedRotation(i64 %0, i1 noundef zeroext %1) local_unnamed_addr #0 {
  %.sroa.2.0.extract.shift = lshr i64 %0, 32
  %3 = zext i1 %1 to i8
  %4 = trunc nuw i64 %.sroa.2.0.extract.shift to i32
  %5 = and i32 %4, 65535
  %6 = tail call ptr @b2GetWorldLocked(i32 noundef %5) #10
  %7 = icmp eq ptr %6, null
  br i1 %7, label %26, label %8

8:                                                ; preds = %2
  %9 = getelementptr inbounds nuw i8, ptr %6, i64 1032
  %.val.i = load ptr, ptr %9, align 8, !tbaa !10
  %10 = shl i64 %0, 32
  %sext.i = add i64 %10, -4294967296
  %11 = ashr exact i64 %sext.i, 25
  %12 = getelementptr inbounds i8, ptr %.val.i, i64 %11
  %13 = getelementptr inbounds nuw i8, ptr %12, i64 119
  %14 = load i8, ptr %13, align 1, !tbaa !148, !range !75, !noundef !76
  %.not = icmp eq i8 %14, %3
  br i1 %.not, label %26, label %15

15:                                               ; preds = %8
  store i8 %3, ptr %13, align 1, !tbaa !148
  %16 = getelementptr inbounds nuw i8, ptr %12, i64 40
  %17 = load i32, ptr %16, align 8, !tbaa !19
  %18 = icmp eq i32 %17, 2
  br i1 %18, label %b2GetBodyState.exit, label %b2GetBodyState.exit.thread

b2GetBodyState.exit:                              ; preds = %15
  %19 = getelementptr inbounds nuw i8, ptr %6, i64 1072
  %.val.i13 = load ptr, ptr %19, align 8, !tbaa !24
  %20 = getelementptr inbounds nuw i8, ptr %.val.i13, i64 192
  %.val5.i = load ptr, ptr %20, align 8, !tbaa !18
  %.not12 = icmp eq ptr %.val5.i, null
  br i1 %.not12, label %b2GetBodyState.exit.thread, label %21

21:                                               ; preds = %b2GetBodyState.exit
  %22 = getelementptr inbounds nuw i8, ptr %12, i64 44
  %23 = load i32, ptr %22, align 4, !tbaa !27
  %24 = sext i32 %23 to i64
  %25 = getelementptr inbounds %struct.b2BodyState, ptr %.val5.i, i64 %24, i32 1
  store float 0.000000e+00, ptr %25, align 4, !tbaa !117
  br label %b2GetBodyState.exit.thread

b2GetBodyState.exit.thread:                       ; preds = %15, %21, %b2GetBodyState.exit
  tail call void @b2UpdateBodyMassData(ptr noundef nonnull %6, ptr noundef nonnull %12)
  br label %26

26:                                               ; preds = %8, %b2GetBodyState.exit.thread, %2
  ret void
}